target datalayout = "e-m:e-p270:32:32-p271:32:32-p272:64:64-i64:64-i128:128-f80:128-n8:16:32:64-S128"
target triple = "x86_64-pc-linux-gnu"

@.str.11 = private unnamed_addr constant [48 x i8] c"%s prints the contents of a WAL summary file.\0A\0A\00", align 1
@.str.12 = private unnamed_addr constant [8 x i8] c"Usage:\0A\00", align 1
@.str.13 = private unnamed_addr constant [26 x i8] c"  %s [OPTION]... FILE...\0A\00", align 1
@.str.14 = private unnamed_addr constant [11 x i8] c"\0AOptions:\0A\00", align 1
@.str.15 = private unnamed_addr constant [76 x i8] c"  -i, --individual          list block numbers individually, not as ranges\0A\00", align 1
@.str.16 = private unnamed_addr constant [72 x i8] c"  -q, --quiet               don't print anything, just parse the files\0A\00", align 1
@.str.17 = private unnamed_addr constant [67 x i8] c"  -V, --version             output version information, then exit\0A\00", align 1
@.str.18 = private unnamed_addr constant [55 x i8] c"  -?, --help                show this help, then exit\0A\00", align 1
@.str.19 = private unnamed_addr constant [23 x i8] c"\0AReport bugs to <%s>.\0A\00", align 1
@.str.20 = private unnamed_addr constant [32 x i8] c"pgsql-bugs@lists.postgresql.org\00", align 1
@.str.21 = private unnamed_addr constant [20 x i8] c"%s home page: <%s>\0A\00", align 1
@.str.22 = private unnamed_addr constant [11 x i8] c"PostgreSQL\00", align 1
@.str.23 = private unnamed_addr constant [28 x i8] c"https://www.postgresql.org/\00", align 1

; Function Attrs: nounwind uwtable
define internal void @help(ptr noundef %0) #0 {
  %2 = alloca ptr, align 8
  store ptr %0, ptr %2, align 8
  %3 = load ptr, ptr %2, align 8
  %4 = call i32 (ptr, ...) @pg_printf(ptr noundef @.str.11, ptr noundef %3)
  %5 = call i32 (ptr, ...) @pg_printf(ptr noundef @.str.12)
  %6 = load ptr, ptr %2, align 8
  %7 = call i32 (ptr, ...) @pg_printf(ptr noundef @.str.13, ptr noundef %6)
  %8 = call i32 (ptr, ...) @pg_printf(ptr noundef @.str.14)
  %9 = call i32 (ptr, ...) @pg_printf(ptr noundef @.str.15)
  %10 = call i32 (ptr, ...) @pg_printf(ptr noundef @.str.16)
  %11 = call i32 (ptr, ...) @pg_printf(ptr noundef @.str.17)
  %12 = call i32 (ptr, ...) @pg_printf(ptr noundef @.str.18)
  %13 = call i32 (ptr, ...) @pg_printf(ptr noundef @.str.19, ptr noundef @.str.20)
  %14 = call i32 (ptr, ...) @pg_printf(ptr noundef @.str.21, ptr noundef @.str.22, ptr noundef @.str.23)
  ret void
}