; Function Attrs: nounwind uwtable
define internal void @help(ptr noundef %0) #3 {
  %2 = tail call i32 (ptr, ...) @pg_printf(ptr noundef nonnull @.str.11, ptr noundef %0) #11
  %3 = tail call i32 (ptr, ...) @pg_printf(ptr noundef nonnull @.str.12) #11
  %4 = tail call i32 (ptr, ...) @pg_printf(ptr noundef nonnull @.str.13, ptr noundef %0) #11
  %5 = tail call i32 (ptr, ...) @pg_printf(ptr noundef nonnull @.str.14) #11
  %6 = tail call i32 (ptr, ...) @pg_printf(ptr noundef nonnull @.str.15) #11
  %7 = tail call i32 (ptr, ...) @pg_printf(ptr noundef nonnull @.str.16) #11
  %8 = tail call i32 (ptr, ...) @pg_printf(ptr noundef nonnull @.str.17) #11
  %9 = tail call i32 (ptr, ...) @pg_printf(ptr noundef nonnull @.str.18) #11
  %10 = tail call i32 (ptr, ...) @pg_printf(ptr noundef nonnull @.str.19, ptr noundef nonnull @.str.20) #11
  %11 = tail call i32 (ptr, ...) @pg_printf(ptr noundef nonnull @.str.21, ptr noundef nonnull @.str.22, ptr noundef nonnull @.str.23) #11
  ret void
}